target datalayout = "e-m:e-p270:32:32-p271:32:32-p272:64:64-i64:64-i128:128-f80:128-n8:16:32:64-S128"
target triple = "x86_64-pc-linux-gnu"

%"class.cv::Moments" = type { double, double, double, double, double, double, double, double, double, double, double, double, double, double, double, double, double, double, double, double, double, double, double, double }

; Function Attrs: mustprogress nounwind uwtable
define linkonce_odr noundef double @_ZSt3absd(double noundef %0) #0 comdat {
  %2 = alloca double, align 8
  store double %0, ptr %2, align 8
  %3 = load double, ptr %2, align 8
  %4 = call double @llvm.fabs.f64(double %3)
  ret double %4
}

; Function Attrs: mustprogress uwtable
define void @_ZN2cv7MomentsC2Edddddddddd(ptr noundef nonnull align 8 dereferenceable(192) %0, double noundef %1, double noundef %2, double noundef %3, double noundef %4, double noundef %5, double noundef %6, double noundef %7, double noundef %8, double noundef %9, double noundef %10) unnamed_addr #1 align 2 {
  %12 = alloca ptr, align 8
  %13 = alloca double, align 8
  %14 = alloca double, align 8
  %15 = alloca double, align 8
  %16 = alloca double, align 8
  %17 = alloca double, align 8
  %18 = alloca double, align 8
  %19 = alloca double, align 8
  %20 = alloca double, align 8
  %21 = alloca double, align 8
  %22 = alloca double, align 8
  %23 = alloca double, align 8
  %24 = alloca double, align 8
  %25 = alloca double, align 8
  %26 = alloca double, align 8
  %27 = alloca double, align 8
  %28 = alloca double, align 8
  store ptr %0, ptr %12, align 8
  store double %1, ptr %13, align 8
  store double %2, ptr %14, align 8
  store double %3, ptr %15, align 8
  store double %4, ptr %16, align 8
  store double %5, ptr %17, align 8
  store double %6, ptr %18, align 8
  store double %7, ptr %19, align 8
  store double %8, ptr %20, align 8
  store double %9, ptr %21, align 8
  store double %10, ptr %22, align 8
  %29 = load ptr, ptr %12, align 8
  %30 = load double, ptr %13, align 8
  %31 = getelementptr inbounds %"class.cv::Moments", ptr %29, i32 0, i32 0
  store double %30, ptr %31, align 8
  %32 = load double, ptr %14, align 8
  %33 = getelementptr inbounds %"class.cv::Moments", ptr %29, i32 0, i32 1
  store double %32, ptr %33, align 8
  %34 = load double, ptr %15, align 8
  %35 = getelementptr inbounds %"class.cv::Moments", ptr %29, i32 0, i32 2
  store double %34, ptr %35, align 8
  %36 = load double, ptr %16, align 8
  %37 = getelementptr inbounds %"class.cv::Moments", ptr %29, i32 0, i32 3
  store double %36, ptr %37, align 8
  %38 = load double, ptr %17, align 8
  %39 = getelementptr inbounds %"class.cv::Moments", ptr %29, i32 0, i32 4
  store double %38, ptr %39, align 8
  %40 = load double, ptr %18, align 8
  %41 = getelementptr inbounds %"class.cv::Moments", ptr %29, i32 0, i32 5
  store double %40, ptr %41, align 8
  %42 = load double, ptr %19, align 8
  %43 = getelementptr inbounds %"class.cv::Moments", ptr %29, i32 0, i32 6
  store double %42, ptr %43, align 8
  %44 = load double, ptr %20, align 8
  %45 = getelementptr inbounds %"class.cv::Moments", ptr %29, i32 0, i32 7
  store double %44, ptr %45, align 8
  %46 = load double, ptr %21, align 8
  %47 = getelementptr inbounds %"class.cv::Moments", ptr %29, i32 0, i32 8
  store double %46, ptr %47, align 8
  %48 = load double, ptr %22, align 8
  %49 = getelementptr inbounds %"class.cv::Moments", ptr %29, i32 0, i32 9
  store double %48, ptr %49, align 8
  store double 0.000000e+00, ptr %23, align 8
  store double 0.000000e+00, ptr %24, align 8
  store double 0.000000e+00, ptr %25, align 8
  %50 = getelementptr inbounds %"class.cv::Moments", ptr %29, i32 0, i32 0
  %51 = load double, ptr %50, align 8
  %52 = call noundef double @_ZSt3absd(double noundef %51)
  %53 = fcmp ogt double %52, 0x3CB0000000000000
  br i1 %53, label %54, label %66

54:                                               ; preds = %11
  %55 = getelementptr inbounds %"class.cv::Moments", ptr %29, i32 0, i32 0
  %56 = load double, ptr %55, align 8
  %57 = fdiv double 1.000000e+00, %56
  store double %57, ptr %25, align 8
  %58 = getelementptr inbounds %"class.cv::Moments", ptr %29, i32 0, i32 1
  %59 = load double, ptr %58, align 8
  %60 = load double, ptr %25, align 8
  %61 = fmul double %59, %60
  store double %61, ptr %23, align 8
  %62 = getelementptr inbounds %"class.cv::Moments", ptr %29, i32 0, i32 2
  %63 = load double, ptr %62, align 8
  %64 = load double, ptr %25, align 8
  %65 = fmul double %63, %64
  store double %65, ptr %24, align 8
  br label %66

66:                                               ; preds = %54, %11
  %67 = getelementptr inbounds %"class.cv::Moments", ptr %29, i32 0, i32 3
  %68 = load double, ptr %67, align 8
  %69 = getelementptr inbounds %"class.cv::Moments", ptr %29, i32 0, i32 1
  %70 = load double, ptr %69, align 8
  %71 = load double, ptr %23, align 8
  %72 = fneg double %70
  %73 = call double @llvm.fmuladd.f64(double %72, double %71, double %68)
  %74 = getelementptr inbounds %"class.cv::Moments", ptr %29, i32 0, i32 10
  store double %73, ptr %74, align 8
  %75 = getelementptr inbounds %"class.cv::Moments", ptr %29, i32 0, i32 4
  %76 = load double, ptr %75, align 8
  %77 = getelementptr inbounds %"class.cv::Moments", ptr %29, i32 0, i32 1
  %78 = load double, ptr %77, align 8
  %79 = load double, ptr %24, align 8
  %80 = fneg double %78
  %81 = call double @llvm.fmuladd.f64(double %80, double %79, double %76)
  %82 = getelementptr inbounds %"class.cv::Moments", ptr %29, i32 0, i32 11
  store double %81, ptr %82, align 8
  %83 = getelementptr inbounds %"class.cv::Moments", ptr %29, i32 0, i32 5
  %84 = load double, ptr %83, align 8
  %85 = getelementptr inbounds %"class.cv::Moments", ptr %29, i32 0, i32 2
  %86 = load double, ptr %85, align 8
  %87 = load double, ptr %24, align 8
  %88 = fneg double %86
  %89 = call double @llvm.fmuladd.f64(double %88, double %87, double %84)
  %90 = getelementptr inbounds %"class.cv::Moments", ptr %29, i32 0, i32 12
  store double %89, ptr %90, align 8
  %91 = getelementptr inbounds %"class.cv::Moments", ptr %29, i32 0, i32 6
  %92 = load double, ptr %91, align 8
  %93 = load double, ptr %23, align 8
  %94 = getelementptr inbounds %"class.cv::Moments", ptr %29, i32 0, i32 10
  %95 = load double, ptr %94, align 8
  %96 = load double, ptr %23, align 8
  %97 = getelementptr inbounds %"class.cv::Moments", ptr %29, i32 0, i32 1
  %98 = load double, ptr %97, align 8
  %99 = fmul double %96, %98
  %100 = call double @llvm.fmuladd.f64(double 3.000000e+00, double %95, double %99)
  %101 = fneg double %93
  %102 = call double @llvm.fmuladd.f64(double %101, double %100, double %92)
  %103 = getelementptr inbounds %"class.cv::Moments", ptr %29, i32 0, i32 13
  store double %102, ptr %103, align 8
  %104 = getelementptr inbounds %"class.cv::Moments", ptr %29, i32 0, i32 7
  %105 = load double, ptr %104, align 8
  %106 = load double, ptr %23, align 8
  %107 = getelementptr inbounds %"class.cv::Moments", ptr %29, i32 0, i32 11
  %108 = load double, ptr %107, align 8
  %109 = load double, ptr %23, align 8
  %110 = getelementptr inbounds %"class.cv::Moments", ptr %29, i32 0, i32 2
  %111 = load double, ptr %110, align 8
  %112 = fmul double %109, %111
  %113 = call double @llvm.fmuladd.f64(double 2.000000e+00, double %108, double %112)
  %114 = fneg double %106
  %115 = call double @llvm.fmuladd.f64(double %114, double %113, double %105)
  %116 = load double, ptr %24, align 8
  %117 = getelementptr inbounds %"class.cv::Moments", ptr %29, i32 0, i32 10
  %118 = load double, ptr %117, align 8
  %119 = fneg double %116
  %120 = call double @llvm.fmuladd.f64(double %119, double %118, double %115)
  %121 = getelementptr inbounds %"class.cv::Moments", ptr %29, i32 0, i32 14
  store double %120, ptr %121, align 8
  %122 = getelementptr inbounds %"class.cv::Moments", ptr %29, i32 0, i32 8
  %123 = load double, ptr %122, align 8
  %124 = load double, ptr %24, align 8
  %125 = getelementptr inbounds %"class.cv::Moments", ptr %29, i32 0, i32 11
  %126 = load double, ptr %125, align 8
  %127 = load double, ptr %24, align 8
  %128 = getelementptr inbounds %"class.cv::Moments", ptr %29, i32 0, i32 1
  %129 = load double, ptr %128, align 8
  %130 = fmul double %127, %129
  %131 = call double @llvm.fmuladd.f64(double 2.000000e+00, double %126, double %130)
  %132 = fneg double %124
  %133 = call double @llvm.fmuladd.f64(double %132, double %131, double %123)
  %134 = load double, ptr %23, align 8
  %135 = getelementptr inbounds %"class.cv::Moments", ptr %29, i32 0, i32 12
  %136 = load double, ptr %135, align 8
  %137 = fneg double %134
  %138 = call double @llvm.fmuladd.f64(double %137, double %136, double %133)
  %139 = getelementptr inbounds %"class.cv::Moments", ptr %29, i32 0, i32 15
  store double %138, ptr %139, align 8
  %140 = getelementptr inbounds %"class.cv::Moments", ptr %29, i32 0, i32 9
  %141 = load double, ptr %140, align 8
  %142 = load double, ptr %24, align 8
  %143 = getelementptr inbounds %"class.cv::Moments", ptr %29, i32 0, i32 12
  %144 = load double, ptr %143, align 8
  %145 = load double, ptr %24, align 8
  %146 = getelementptr inbounds %"class.cv::Moments", ptr %29, i32 0, i32 2
  %147 = load double, ptr %146, align 8
  %148 = fmul double %145, %147
  %149 = call double @llvm.fmuladd.f64(double 3.000000e+00, double %144, double %148)
  %150 = fneg double %142
  %151 = call double @llvm.fmuladd.f64(double %150, double %149, double %141)
  %152 = getelementptr inbounds %"class.cv::Moments", ptr %29, i32 0, i32 16
  store double %151, ptr %152, align 8
  %153 = load double, ptr %25, align 8
  %154 = call noundef double @_ZSt3absd(double noundef %153)
  %155 = call double @sqrt(double noundef %154) #9
  store double %155, ptr %26, align 8
  %156 = load double, ptr %25, align 8
  %157 = load double, ptr %25, align 8
  %158 = fmul double %156, %157
  store double %158, ptr %27, align 8
  %159 = load double, ptr %27, align 8
  %160 = load double, ptr %26, align 8
  %161 = fmul double %159, %160
  store double %161, ptr %28, align 8
  %162 = getelementptr inbounds %"class.cv::Moments", ptr %29, i32 0, i32 10
  %163 = load double, ptr %162, align 8
  %164 = load double, ptr %27, align 8
  %165 = fmul double %163, %164
  %166 = getelementptr inbounds %"class.cv::Moments", ptr %29, i32 0, i32 17
  store double %165, ptr %166, align 8
  %167 = getelementptr inbounds %"class.cv::Moments", ptr %29, i32 0, i32 11
  %168 = load double, ptr %167, align 8
  %169 = load double, ptr %27, align 8
  %170 = fmul double %168, %169
  %171 = getelementptr inbounds %"class.cv::Moments", ptr %29, i32 0, i32 18
  store double %170, ptr %171, align 8
  %172 = getelementptr inbounds %"class.cv::Moments", ptr %29, i32 0, i32 12
  %173 = load double, ptr %172, align 8
  %174 = load double, ptr %27, align 8
  %175 = fmul double %173, %174
  %176 = getelementptr inbounds %"class.cv::Moments", ptr %29, i32 0, i32 19
  store double %175, ptr %176, align 8
  %177 = getelementptr inbounds %"class.cv::Moments", ptr %29, i32 0, i32 13
  %178 = load double, ptr %177, align 8
  %179 = load double, ptr %28, align 8
  %180 = fmul double %178, %179
  %181 = getelementptr inbounds %"class.cv::Moments", ptr %29, i32 0, i32 20
  store double %180, ptr %181, align 8
  %182 = getelementptr inbounds %"class.cv::Moments", ptr %29, i32 0, i32 14
  %183 = load double, ptr %182, align 8
  %184 = load double, ptr %28, align 8
  %185 = fmul double %183, %184
  %186 = getelementptr inbounds %"class.cv::Moments", ptr %29, i32 0, i32 21
  store double %185, ptr %186, align 8
  %187 = getelementptr inbounds %"class.cv::Moments", ptr %29, i32 0, i32 15
  %188 = load double, ptr %187, align 8
  %189 = load double, ptr %28, align 8
  %190 = fmul double %188, %189
  %191 = getelementptr inbounds %"class.cv::Moments", ptr %29, i32 0, i32 22
  store double %190, ptr %191, align 8
  %192 = getelementptr inbounds %"class.cv::Moments", ptr %29, i32 0, i32 16
  %193 = load double, ptr %192, align 8
  %194 = load double, ptr %28, align 8
  %195 = fmul double %193, %194
  %196 = getelementptr inbounds %"class.cv::Moments", ptr %29, i32 0, i32 23
  store double %195, ptr %196, align 8
  ret void
}