; Function Attrs: mustprogress nofree norecurse nosync nounwind willreturn memory(argmem: write) uwtable
define void @_ZN2cv7MomentsC2Edddddddddd(ptr nocapture noundef nonnull writeonly align 8 dereferenceable(192) %0, double noundef %1, double noundef %2, double noundef %3, double noundef %4, double noundef %5, double noundef %6, double noundef %7, double noundef %8, double noundef %9, double noundef %10) unnamed_addr #0 align 2 {
  store double %1, ptr %0, align 8
  %12 = getelementptr inbounds i8, ptr %0, i64 8
  store double %2, ptr %12, align 8
  %13 = getelementptr inbounds i8, ptr %0, i64 16
  store double %3, ptr %13, align 8
  %14 = getelementptr inbounds i8, ptr %0, i64 24
  store double %4, ptr %14, align 8
  %15 = getelementptr inbounds i8, ptr %0, i64 32
  store double %5, ptr %15, align 8
  %16 = getelementptr inbounds i8, ptr %0, i64 40
  store double %6, ptr %16, align 8
  %17 = getelementptr inbounds i8, ptr %0, i64 48
  store double %7, ptr %17, align 8
  %18 = getelementptr inbounds i8, ptr %0, i64 56
  store double %8, ptr %18, align 8
  %19 = getelementptr inbounds i8, ptr %0, i64 64
  store double %9, ptr %19, align 8
  %20 = getelementptr inbounds i8, ptr %0, i64 72
  store double %10, ptr %20, align 8
  %21 = tail call noundef double @llvm.fabs.f64(double %1)
  %22 = fcmp ogt double %21, 0x3CB0000000000000
  %23 = fdiv double 1.000000e+00, %1
  %.039 = select i1 %22, double %23, double 0.000000e+00
  %24 = fneg double %2
  %25 = getelementptr inbounds i8, ptr %0, i64 80
  %26 = fneg double %3
  %27 = getelementptr inbounds i8, ptr %0, i64 96
  %28 = getelementptr inbounds i8, ptr %0, i64 104
  %29 = getelementptr inbounds i8, ptr %0, i64 120
  %30 = tail call double @llvm.fabs.f64(double %23)
  %31 = select i1 %22, double %30, double 0.000000e+00
  %sqrt = tail call double @llvm.sqrt.f64(double %31)
  %32 = fmul double %.039, %.039
  %33 = fmul double %32, %sqrt
  %34 = getelementptr inbounds i8, ptr %0, i64 136
  %35 = insertelement <2 x double> poison, double %23, i64 0
  %36 = shufflevector <2 x double> %35, <2 x double> poison, <2 x i32> zeroinitializer
  %37 = insertelement <2 x double> poison, double %2, i64 0
  %38 = insertelement <2 x double> %37, double %3, i64 1
  %39 = fmul <2 x double> %36, %38
  %40 = insertelement <2 x i1> poison, i1 %22, i64 0
  %41 = shufflevector <2 x i1> %40, <2 x i1> poison, <2 x i32> zeroinitializer
  %42 = select <2 x i1> %41, <2 x double> %39, <2 x double> zeroinitializer
  %43 = insertelement <2 x double> poison, double %24, i64 0
  %44 = shufflevector <2 x double> %43, <2 x double> poison, <2 x i32> zeroinitializer
  %45 = insertelement <2 x double> poison, double %4, i64 0
  %46 = insertelement <2 x double> %45, double %5, i64 1
  %47 = tail call <2 x double> @llvm.fmuladd.v2f64(<2 x double> %44, <2 x double> %42, <2 x double> %46)
  store <2 x double> %47, ptr %25, align 8
  %48 = extractelement <2 x double> %42, i64 1
  %49 = extractelement <2 x double> %42, i64 0
  %50 = fmul double %49, %2
  %51 = extractelement <2 x double> %47, i64 0
  %52 = tail call double @llvm.fmuladd.f64(double %51, double 3.000000e+00, double %50)
  %53 = fmul double %49, %3
  %54 = extractelement <2 x double> %47, i64 1
  %55 = tail call double @llvm.fmuladd.f64(double %54, double 2.000000e+00, double %53)
  %56 = fmul double %48, %2
  %57 = tail call double @llvm.fmuladd.f64(double %54, double 2.000000e+00, double %56)
  %58 = fmul double %48, %3
  %59 = insertelement <2 x double> poison, double %32, i64 0
  %60 = shufflevector <2 x double> %59, <2 x double> poison, <2 x i32> zeroinitializer
  %61 = fmul <2 x double> %60, %47
  store <2 x double> %61, ptr %34, align 8
  %62 = getelementptr inbounds i8, ptr %0, i64 152
  %63 = getelementptr inbounds i8, ptr %0, i64 160
  %64 = fneg <2 x double> %42
  %65 = extractelement <2 x double> %64, i64 0
  %66 = tail call double @llvm.fmuladd.f64(double %65, double %55, double %8)
  %67 = shufflevector <2 x double> %47, <2 x double> poison, <2 x i32> <i32 poison, i32 0>
  %68 = insertelement <2 x double> %67, double %52, i64 0
  %69 = insertelement <2 x double> poison, double %7, i64 0
  %70 = insertelement <2 x double> %69, double %66, i64 1
  %71 = tail call <2 x double> @llvm.fmuladd.v2f64(<2 x double> %64, <2 x double> %68, <2 x double> %70)
  store <2 x double> %71, ptr %28, align 8
  %72 = extractelement <2 x double> %64, i64 1
  %73 = tail call double @llvm.fmuladd.f64(double %72, double %57, double %9)
  %74 = insertelement <2 x double> poison, double %33, i64 0
  %75 = shufflevector <2 x double> %74, <2 x double> poison, <2 x i32> zeroinitializer
  %76 = fmul <2 x double> %75, %71
  store <2 x double> %76, ptr %63, align 8
  %77 = getelementptr inbounds i8, ptr %0, i64 176
  %78 = tail call double @llvm.fmuladd.f64(double %26, double %48, double %6)
  store double %78, ptr %27, align 8
  %79 = tail call double @llvm.fmuladd.f64(double %78, double 3.000000e+00, double %58)
  %80 = fmul double %32, %78
  store double %80, ptr %62, align 8
  %81 = insertelement <2 x double> poison, double %78, i64 0
  %82 = insertelement <2 x double> %81, double %79, i64 1
  %83 = insertelement <2 x double> poison, double %73, i64 0
  %84 = insertelement <2 x double> %83, double %10, i64 1
  %85 = tail call <2 x double> @llvm.fmuladd.v2f64(<2 x double> %64, <2 x double> %82, <2 x double> %84)
  store <2 x double> %85, ptr %29, align 8
  %86 = fmul <2 x double> %75, %85
  store <2 x double> %86, ptr %77, align 8
  ret void
}